; Function Attrs: mustprogress uwtable
define hidden void @_ZNK2cv14MatOp_Identity6assignERKNS_7MatExprERNS_3MatEi(ptr nocapture nonnull readnone align 8 %0, ptr noundef nonnull align 8 dereferenceable(352) %1, ptr noundef nonnull align 8 dereferenceable(96) %2, i32 noundef %3) unnamed_addr #8 align 2 personality ptr @__gxx_personality_v0 {
  %5 = alloca %"class.std::__cxx11::basic_string", align 8
  %6 = alloca %"class.std::allocator", align 1
  %7 = alloca %"class.cv::_OutputArray", align 8
  %8 = icmp eq i32 %3, -1
  br i1 %8, label %14, label %9

9:                                                ; preds = %4
  %10 = getelementptr inbounds i8, ptr %1, i64 16
  %11 = load i32, ptr %10, align 8
  %12 = and i32 %11, 4095
  %13 = icmp eq i32 %12, %3
  br i1 %13, label %14, label %17

14:                                               ; preds = %9, %4
  %15 = getelementptr inbounds i8, ptr %1, i64 16
  %16 = tail call noundef nonnull align 8 dereferenceable(96) ptr @_ZN2cv3MataSERKS0_(ptr noundef nonnull align 8 dereferenceable(96) %2, ptr noundef nonnull align 8 dereferenceable(96) %15)
  br label %32

17:                                               ; preds = %9
  %18 = xor i32 %11, %3
  %19 = and i32 %18, 4088
  %20 = icmp eq i32 %19, 0
  br i1 %20, label %29, label %21

21:                                               ; preds = %17
  call void @_ZNSaIcEC1Ev(ptr noundef nonnull align 1 dereferenceable(1) %6) #21
  invoke void @_ZNSt7__cxx1112basic_stringIcSt11char_traitsIcESaIcEEC1EPKcRKS3_(ptr noundef nonnull align 8 dereferenceable(32) %5, ptr noundef nonnull @.str.29, ptr noundef nonnull align 1 dereferenceable(1) %6)
          to label %22 unwind label %24

22:                                               ; preds = %21
  invoke void @_ZN2cv5errorEiRKNSt7__cxx1112basic_stringIcSt11char_traitsIcESaIcEEEPKcS9_i(i32 noundef -215, ptr noundef nonnull align 8 dereferenceable(32) %5, ptr noundef nonnull @__func__._ZNK2cv14MatOp_Identity6assignERKNS_7MatExprERNS_3MatEi, ptr noundef nonnull @.str.9, i32 noundef 1281) #22
          to label %23 unwind label %26

23:                                               ; preds = %22
  unreachable

24:                                               ; preds = %21
  %25 = landingpad { ptr, i32 }
          cleanup
  br label %28

26:                                               ; preds = %22
  %27 = landingpad { ptr, i32 }
          cleanup
  call void @_ZNSt7__cxx1112basic_stringIcSt11char_traitsIcESaIcEED1Ev(ptr noundef nonnull align 8 dereferenceable(32) %5) #21
  br label %28

28:                                               ; preds = %26, %24
  %.pn = phi { ptr, i32 } [ %27, %26 ], [ %25, %24 ]
  call void @_ZNSaIcED1Ev(ptr noundef nonnull align 1 dereferenceable(1) %6) #21
  resume { ptr, i32 } %.pn

29:                                               ; preds = %17
  %30 = getelementptr inbounds i8, ptr %7, i64 8
  %31 = getelementptr inbounds i8, ptr %7, i64 16
  store i64 0, ptr %31, align 8
  store i32 33619968, ptr %7, align 8
  store ptr %2, ptr %30, align 8
  call void @_ZNK2cv3Mat9convertToERKNS_12_OutputArrayEidd(ptr noundef nonnull align 8 dereferenceable(96) %10, ptr noundef nonnull align 8 dereferenceable(24) %7, i32 noundef %3, double noundef 1.000000e+00, double noundef 0.000000e+00)
  br label %32

32:                                               ; preds = %29, %14
  ret void
}